; ModuleID = '19/640.c'
source_filename = "19/640.c"
target datalayout = "e-m:e-p270:32:32-p271:32:32-p272:64:64-i64:64-f80:128-n8:16:32:64-S128"
target triple = "x86_64-pc-linux-gnu"

@.str = private unnamed_addr constant [3 x i8] c"%s\00", align 1
@.str.1 = private unnamed_addr constant [4 x i8] c" %s\00", align 1

; Function Attrs: noinline nounwind uwtable
define dso_local i32 @main() #0 {
  %1 = alloca i32, align 4
  %2 = alloca [101 x [101 x i8]], align 16
  %3 = alloca [101 x i8], align 16
  %4 = alloca [101 x i8], align 16
  %5 = alloca i32, align 4
  %6 = alloca i32, align 4
  store i32 0, i32* %1, align 4
  %7 = bitcast [101 x [101 x i8]]* %2 to i8*
  call void @llvm.memset.p0i8.i64(i8* align 16 %7, i8 0, i64 10201, i1 false)
  store i32 0, i32* %6, align 4
  br label %8

8:                                                ; preds = %18, %0
  %9 = load i32, i32* %6, align 4
  %10 = sext i32 %9 to i64
  %11 = getelementptr inbounds [101 x [101 x i8]], [101 x [101 x i8]]* %2, i64 0, i64 %10
  %12 = getelementptr inbounds [101 x i8], [101 x i8]* %11, i64 0, i64 0
  %13 = call i32 (i8*, ...) @__isoc99_scanf(i8* getelementptr inbounds ([3 x i8], [3 x i8]* @.str, i64 0, i64 0), i8* %12)
  %14 = call i32 @getchar()
  %15 = icmp eq i32 %14, 10
  br i1 %15, label %16, label %17

16:                                               ; preds = %8
  br label %21

17:                                               ; preds = %8
  br label %18

18:                                               ; preds = %17
  %19 = load i32, i32* %6, align 4
  %20 = add nsw i32 %19, 1
  store i32 %20, i32* %6, align 4
  br label %8

21:                                               ; preds = %16
  %22 = getelementptr inbounds [101 x i8], [101 x i8]* %3, i64 0, i64 0
  %23 = call i32 (i8*, ...) bitcast (i32 (...)* @gets to i32 (i8*, ...)*)(i8* %22)
  %24 = getelementptr inbounds [101 x i8], [101 x i8]* %4, i64 0, i64 0
  %25 = call i32 (i8*, ...) bitcast (i32 (...)* @gets to i32 (i8*, ...)*)(i8* %24)
  store i32 0, i32* %5, align 4
  br label %26

26:                                               ; preds = %45, %21
  %27 = load i32, i32* %5, align 4
  %28 = icmp slt i32 %27, 101
  br i1 %28, label %29, label %48

29:                                               ; preds = %26
  %30 = load i32, i32* %5, align 4
  %31 = sext i32 %30 to i64
  %32 = getelementptr inbounds [101 x [101 x i8]], [101 x [101 x i8]]* %2, i64 0, i64 %31
  %33 = getelementptr inbounds [101 x i8], [101 x i8]* %32, i64 0, i64 0
  %34 = getelementptr inbounds [101 x i8], [101 x i8]* %3, i64 0, i64 0
  %35 = call i32 @strcmp(i8* %33, i8* %34) #5
  %36 = icmp eq i32 %35, 0
  br i1 %36, label %37, label %44

37:                                               ; preds = %29
  %38 = load i32, i32* %5, align 4
  %39 = sext i32 %38 to i64
  %40 = getelementptr inbounds [101 x [101 x i8]], [101 x [101 x i8]]* %2, i64 0, i64 %39
  %41 = getelementptr inbounds [101 x i8], [101 x i8]* %40, i64 0, i64 0
  %42 = getelementptr inbounds [101 x i8], [101 x i8]* %4, i64 0, i64 0
  %43 = call i8* @strcpy(i8* %41, i8* %42) #6
  br label %44

44:                                               ; preds = %37, %29
  br label %45

45:                                               ; preds = %44
  %46 = load i32, i32* %5, align 4
  %47 = add nsw i32 %46, 1
  store i32 %47, i32* %5, align 4
  br label %26

48:                                               ; preds = %26
  %49 = getelementptr inbounds [101 x [101 x i8]], [101 x [101 x i8]]* %2, i64 0, i64 0
  %50 = getelementptr inbounds [101 x i8], [101 x i8]* %49, i64 0, i64 0
  %51 = call i32 (i8*, ...) @printf(i8* getelementptr inbounds ([3 x i8], [3 x i8]* @.str, i64 0, i64 0), i8* %50)
  store i32 1, i32* %5, align 4
  br label %52

52:                                               ; preds = %62, %48
  %53 = load i32, i32* %5, align 4
  %54 = load i32, i32* %6, align 4
  %55 = icmp sle i32 %53, %54
  br i1 %55, label %56, label %65

56:                                               ; preds = %52
  %57 = load i32, i32* %5, align 4
  %58 = sext i32 %57 to i64
  %59 = getelementptr inbounds [101 x [101 x i8]], [101 x [101 x i8]]* %2, i64 0, i64 %58
  %60 = getelementptr inbounds [101 x i8], [101 x i8]* %59, i64 0, i64 0
  %61 = call i32 (i8*, ...) @printf(i8* getelementptr inbounds ([4 x i8], [4 x i8]* @.str.1, i64 0, i64 0), i8* %60)
  br label %62

62:                                               ; preds = %56
  %63 = load i32, i32* %5, align 4
  %64 = add nsw i32 %63, 1
  store i32 %64, i32* %5, align 4
  br label %52

65:                                               ; preds = %52
  ret i32 0
}

; Function Attrs: argmemonly nounwind willreturn
declare void @llvm.memset.p0i8.i64(i8* nocapture writeonly, i8, i64, i1 immarg) #1

declare dso_local i32 @__isoc99_scanf(i8*, ...) #2

declare dso_local i32 @getchar() #2

declare dso_local i32 @gets(...) #2

; Function Attrs: nounwind readonly
declare dso_local i32 @strcmp(i8*, i8*) #3

; Function Attrs: nounwind
declare dso_local i8* @strcpy(i8*, i8*) #4

declare dso_local i32 @printf(i8*, ...) #2


!llvm.module.flags = !{!0}
!llvm.ident = !{!1}

!0 = !{i32 1, !"wchar_size", i32 4}
!1 = !{!"clang version 10.0.0-4ubuntu1 "}
